; Function Attrs: nounwind uwtable
define hidden noundef i32 @VP8PutBitUniform(ptr noundef captures(none) %0, i32 noundef returned %1) local_unnamed_addr #0 {
  %3 = load i32, ptr %0, align 8, !tbaa !3
  %4 = ashr i32 %3, 1
  %.not = icmp eq i32 %1, 0
  br i1 %.not, label %11, label %5

5:                                                ; preds = %2
  %6 = add nsw i32 %4, 1
  %7 = getelementptr inbounds nuw i8, ptr %0, i64 4
  %8 = load i32, ptr %7, align 4, !tbaa !11
  %9 = add nsw i32 %8, %6
  store i32 %9, ptr %7, align 4, !tbaa !11
  %10 = sub nsw i32 %3, %6
  br label %11

11:                                               ; preds = %2, %5
  %storemerge = phi i32 [ %10, %5 ], [ %4, %2 ]
  store i32 %storemerge, ptr %0, align 8, !tbaa !3
  %12 = icmp slt i32 %storemerge, 127
  br i1 %12, label %13, label %26

13:                                               ; preds = %11
  %14 = sext i32 %storemerge to i64
  %15 = getelementptr inbounds [128 x i8], ptr @kNewRange, i64 0, i64 %14
  %16 = load i8, ptr %15, align 1, !tbaa !12
  %17 = zext i8 %16 to i32
  store i32 %17, ptr %0, align 8, !tbaa !3
  %18 = getelementptr inbounds nuw i8, ptr %0, i64 4
  %19 = load i32, ptr %18, align 4, !tbaa !11
  %20 = shl i32 %19, 1
  store i32 %20, ptr %18, align 4, !tbaa !11
  %21 = getelementptr inbounds nuw i8, ptr %0, i64 12
  %22 = load i32, ptr %21, align 4, !tbaa !13
  %23 = add nsw i32 %22, 1
  store i32 %23, ptr %21, align 4, !tbaa !13
  %24 = icmp sgt i32 %22, -1
  br i1 %24, label %25, label %26

25:                                               ; preds = %13
  tail call fastcc void @Flush(ptr noundef nonnull %0)
  br label %26

26:                                               ; preds = %13, %25, %11
  ret i32 %1
}